target datalayout = "e-m:e-p270:32:32-p271:32:32-p272:64:64-i64:64-i128:128-f80:128-n8:16:32:64-S128"
target triple = "x86_64-pc-linux-gnu"

%"class.Luau::Variant" = type { i32, [4 x i8], [8 x i8] }

; Function Attrs: mustprogress nounwind uwtable
define linkonce_odr dso_local noundef ptr @_ZNK4Luau7VariantIJPKNS_4TypeEPKNS_11TypePackVarEEE6get_ifIS6_EEPKT_v(ptr noundef nonnull align 8 dereferenceable(16) %0) #4 comdat align 2 {
  %2 = alloca ptr, align 8
  %3 = alloca i32, align 4
  store ptr %0, ptr %2, align 8, !tbaa !8
  %4 = load ptr, ptr %2, align 8
  call void @llvm.lifetime.start.p0(i64 4, ptr %3) #5
  store i32 1, ptr %3, align 4, !tbaa !4
  %5 = getelementptr inbounds nuw %"class.Luau::Variant", ptr %4, i32 0, i32 0
  %6 = load i32, ptr %5, align 8, !tbaa !21
  %7 = icmp eq i32 1, %6
  br i1 %7, label %8, label %10

8:                                                ; preds = %1
  %9 = getelementptr inbounds nuw %"class.Luau::Variant", ptr %4, i32 0, i32 2
  br label %11

10:                                               ; preds = %1
  br label %11

11:                                               ; preds = %10, %8
  %12 = phi ptr [ %9, %8 ], [ null, %10 ]
  call void @llvm.lifetime.end.p0(i64 4, ptr %3) #5
  ret ptr %12
}

; Function Attrs: mustprogress nounwind uwtable
define linkonce_odr dso_local noundef ptr @_ZNK4Luau7VariantIJPKNS_4TypeEPKNS_11TypePackVarEEE6get_ifIS3_EEPKT_v(ptr noundef nonnull align 8 dereferenceable(16) %0) #4 comdat align 2 {
  %2 = alloca ptr, align 8
  %3 = alloca i32, align 4
  store ptr %0, ptr %2, align 8, !tbaa !8
  %4 = load ptr, ptr %2, align 8
  call void @llvm.lifetime.start.p0(i64 4, ptr %3) #5
  store i32 0, ptr %3, align 4, !tbaa !4
  %5 = getelementptr inbounds nuw %"class.Luau::Variant", ptr %4, i32 0, i32 0
  %6 = load i32, ptr %5, align 8, !tbaa !21
  %7 = icmp eq i32 0, %6
  br i1 %7, label %8, label %10

8:                                                ; preds = %1
  %9 = getelementptr inbounds nuw %"class.Luau::Variant", ptr %4, i32 0, i32 2
  br label %11

10:                                               ; preds = %1
  br label %11

11:                                               ; preds = %10, %8
  %12 = phi ptr [ %9, %8 ], [ null, %10 ]
  call void @llvm.lifetime.end.p0(i64 4, ptr %3) #5
  ret ptr %12
}

; Function Attrs: mustprogress nounwind uwtable
define linkonce_odr dso_local void @_ZN4Luau7VariantIJPKNS_4TypeEPKNS_11TypePackVarEEEC2IS6_EEOT_PNSt9enable_ifIXgecl9getTypeIdIS9_EELi0EEvE4typeE(ptr noundef nonnull align 8 dereferenceable(16) %0, ptr noundef nonnull align 8 dereferenceable(8) %1, ptr noundef %2) unnamed_addr #4 comdat align 2 {
  %4 = alloca ptr, align 8
  %5 = alloca ptr, align 8
  %6 = alloca ptr, align 8
  %7 = alloca i32, align 4
  store ptr %0, ptr %4, align 8, !tbaa !8
  store ptr %1, ptr %5, align 8, !tbaa !16
  store ptr %2, ptr %6, align 8, !tbaa !20
  %8 = load ptr, ptr %4, align 8
  call void @llvm.lifetime.start.p0(i64 4, ptr %7) #5
  store i32 1, ptr %7, align 4, !tbaa !4
  %9 = getelementptr inbounds nuw %"class.Luau::Variant", ptr %8, i32 0, i32 0
  store i32 1, ptr %9, align 8, !tbaa !21
  %10 = getelementptr inbounds nuw %"class.Luau::Variant", ptr %8, i32 0, i32 2
  %11 = load ptr, ptr %5, align 8, !tbaa !16
  %12 = load ptr, ptr %11, align 8, !tbaa !18
  store ptr %12, ptr %10, align 8, !tbaa !18
  call void @llvm.lifetime.end.p0(i64 4, ptr %7) #5
  ret void
}

; Function Attrs: mustprogress uwtable
define linkonce_odr dso_local noundef ptr @_ZN4Luau3getIPKNS_11TypePackVarETnNSt9enable_ifIXsr10TypeOrPackE12is_part_of_vIT_EEbE4typeELb1EEEPKS5_RKNS_7VariantIJPKNS_4TypeES3_EEE(ptr noundef nonnull align 8 dereferenceable(16) %0) #2 comdat {
  %2 = alloca ptr, align 8
  store ptr %0, ptr %2, align 8, !tbaa !8
  %3 = load ptr, ptr %2, align 8, !tbaa !8
  %4 = call noundef ptr @_ZNK4Luau7VariantIJPKNS_4TypeEPKNS_11TypePackVarEEE6get_ifIS6_EEPKT_v(ptr noundef nonnull align 8 dereferenceable(16) %3)
  ret ptr %4
}

; Function Attrs: mustprogress nounwind uwtable
define linkonce_odr dso_local void @_ZN4Luau7VariantIJPKNS_4TypeEPKNS_11TypePackVarEEEC2IS3_EEOT_PNSt9enable_ifIXgecl9getTypeIdIS9_EELi0EEvE4typeE(ptr noundef nonnull align 8 dereferenceable(16) %0, ptr noundef nonnull align 8 dereferenceable(8) %1, ptr noundef %2) unnamed_addr #4 comdat align 2 {
  %4 = alloca ptr, align 8
  %5 = alloca ptr, align 8
  %6 = alloca ptr, align 8
  %7 = alloca i32, align 4
  store ptr %0, ptr %4, align 8, !tbaa !8
  store ptr %1, ptr %5, align 8, !tbaa !11
  store ptr %2, ptr %6, align 8, !tbaa !20
  %8 = load ptr, ptr %4, align 8
  call void @llvm.lifetime.start.p0(i64 4, ptr %7) #5
  store i32 0, ptr %7, align 4, !tbaa !4
  %9 = getelementptr inbounds nuw %"class.Luau::Variant", ptr %8, i32 0, i32 0
  store i32 0, ptr %9, align 8, !tbaa !21
  %10 = getelementptr inbounds nuw %"class.Luau::Variant", ptr %8, i32 0, i32 2
  %11 = load ptr, ptr %5, align 8, !tbaa !11
  %12 = load ptr, ptr %11, align 8, !tbaa !14
  store ptr %12, ptr %10, align 8, !tbaa !14
  call void @llvm.lifetime.end.p0(i64 4, ptr %7) #5
  ret void
}

; Function Attrs: mustprogress uwtable
define linkonce_odr dso_local noundef ptr @_ZN4Luau3getIPKNS_4TypeETnNSt9enable_ifIXsr10TypeOrPackE12is_part_of_vIT_EEbE4typeELb1EEEPKS5_RKNS_7VariantIJS3_PKNS_11TypePackVarEEEE(ptr noundef nonnull align 8 dereferenceable(16) %0) #2 comdat {
  %2 = alloca ptr, align 8
  store ptr %0, ptr %2, align 8, !tbaa !8
  %3 = load ptr, ptr %2, align 8, !tbaa !8
  %4 = call noundef ptr @_ZNK4Luau7VariantIJPKNS_4TypeEPKNS_11TypePackVarEEE6get_ifIS3_EEPKT_v(ptr noundef nonnull align 8 dereferenceable(16) %3)
  ret ptr %4
}

; Function Attrs: mustprogress uwtable
define dso_local void @_ZN4Luau6followENS_7VariantIJPKNS_4TypeEPKNS_11TypePackVarEEEE(ptr dead_on_unwind noalias writable sret(%"class.Luau::Variant") align 8 %0, ptr noundef %1) #2 {
  %3 = alloca ptr, align 8
  %4 = alloca ptr, align 8
  %5 = alloca ptr, align 8
  %6 = alloca ptr, align 8
  %7 = alloca i32, align 4
  %8 = alloca ptr, align 8
  %9 = alloca ptr, align 8
  store ptr %0, ptr %3, align 8
  store ptr %1, ptr %4, align 8, !tbaa !8
  call void @llvm.lifetime.start.p0(i64 8, ptr %5) #5
  %10 = call noundef ptr @_ZN4Luau3getIPKNS_4TypeETnNSt9enable_ifIXsr10TypeOrPackE12is_part_of_vIT_EEbE4typeELb1EEEPKS5_RKNS_7VariantIJS3_PKNS_11TypePackVarEEEE(ptr noundef nonnull align 8 dereferenceable(16) %1)
  store ptr %10, ptr %5, align 8, !tbaa !11
  %11 = load ptr, ptr %5, align 8, !tbaa !11
  %12 = icmp ne ptr %11, null
  br i1 %12, label %13, label %17

13:                                               ; preds = %2
  call void @llvm.lifetime.start.p0(i64 8, ptr %6) #5
  %14 = load ptr, ptr %5, align 8, !tbaa !11
  %15 = load ptr, ptr %14, align 8, !tbaa !14
  %16 = call noundef ptr @_ZN4Luau6followEPKNS_4TypeE(ptr noundef %15)
  store ptr %16, ptr %6, align 8, !tbaa !14
  call void @_ZN4Luau7VariantIJPKNS_4TypeEPKNS_11TypePackVarEEEC2IS3_EEOT_PNSt9enable_ifIXgecl9getTypeIdIS9_EELi0EEvE4typeE(ptr noundef nonnull align 8 dereferenceable(16) %0, ptr noundef nonnull align 8 dereferenceable(8) %6, ptr noundef null)
  call void @llvm.lifetime.end.p0(i64 8, ptr %6) #5
  store i32 1, ptr %7, align 4
  br label %26

17:                                               ; preds = %2
  call void @llvm.lifetime.start.p0(i64 8, ptr %8) #5
  %18 = call noundef ptr @_ZN4Luau3getIPKNS_11TypePackVarETnNSt9enable_ifIXsr10TypeOrPackE12is_part_of_vIT_EEbE4typeELb1EEEPKS5_RKNS_7VariantIJPKNS_4TypeES3_EEE(ptr noundef nonnull align 8 dereferenceable(16) %1)
  store ptr %18, ptr %8, align 8, !tbaa !16
  %19 = load ptr, ptr %8, align 8, !tbaa !16
  %20 = icmp ne ptr %19, null
  br i1 %20, label %21, label %25

21:                                               ; preds = %17
  call void @llvm.lifetime.start.p0(i64 8, ptr %9) #5
  %22 = load ptr, ptr %8, align 8, !tbaa !16
  %23 = load ptr, ptr %22, align 8, !tbaa !18
  %24 = call noundef ptr @_ZN4Luau6followEPKNS_11TypePackVarE(ptr noundef %23)
  store ptr %24, ptr %9, align 8, !tbaa !18
  call void @_ZN4Luau7VariantIJPKNS_4TypeEPKNS_11TypePackVarEEEC2IS6_EEOT_PNSt9enable_ifIXgecl9getTypeIdIS9_EELi0EEvE4typeE(ptr noundef nonnull align 8 dereferenceable(16) %0, ptr noundef nonnull align 8 dereferenceable(8) %9, ptr noundef null)
  call void @llvm.lifetime.end.p0(i64 8, ptr %9) #5
  store i32 1, ptr %7, align 4
  call void @llvm.lifetime.end.p0(i64 8, ptr %8) #5
  br label %26

25:                                               ; preds = %17
  unreachable

26:                                               ; preds = %21, %13
  call void @llvm.lifetime.end.p0(i64 8, ptr %5) #5
  ret void
}