; Function Attrs: mustprogress uwtable
define dso_local void @_ZN4Luau6followENS_7VariantIJPKNS_4TypeEPKNS_11TypePackVarEEEE(ptr dead_on_unwind noalias writable writeonly sret(%"class.Luau::Variant") align 8 captures(none) initializes((0, 4), (8, 16)) %0, ptr noundef readonly captures(none) %1) local_unnamed_addr #3 {
  %3 = load i32, ptr %1, align 8, !tbaa !8
  %.not = icmp eq i32 %3, 0
  %4 = getelementptr inbounds nuw i8, ptr %1, i64 8
  br i1 %.not, label %5, label %8

5:                                                ; preds = %2
  %6 = load ptr, ptr %4, align 8, !tbaa !12
  %7 = tail call noundef ptr @_ZN4Luau6followEPKNS_4TypeE(ptr noundef %6)
  br label %12

8:                                                ; preds = %2
  %9 = icmp eq i32 %3, 1
  tail call void @llvm.assume(i1 %9)
  %10 = load ptr, ptr %4, align 8, !tbaa !14
  %11 = tail call noundef ptr @_ZN4Luau6followEPKNS_11TypePackVarE(ptr noundef %10)
  br label %12

12:                                               ; preds = %8, %5
  %.sink5 = phi i32 [ 0, %5 ], [ 1, %8 ]
  %.sink = phi ptr [ %7, %5 ], [ %11, %8 ]
  store i32 %.sink5, ptr %0, align 8, !tbaa !8
  %13 = getelementptr inbounds nuw i8, ptr %0, i64 8
  store ptr %.sink, ptr %13, align 8, !tbaa !10
  ret void
}